target datalayout = "e-m:e-p270:32:32-p271:32:32-p272:64:64-i64:64-i128:128-f80:128-n8:16:32:64-S128"
target triple = "x86_64-pc-linux-gnu"

%class.Register = type { i32 }
%struct.NarrowPtrStruct = type { ptr, i32, i8 }

@LogMinObjAlignmentInBytes = external global i32, align 4
@_ZL12r12_heapbase = internal constant %class.Register { i32 12 }, align 4
@_ZN14CompressedOops11_narrow_oopE = external global %struct.NarrowPtrStruct, align 8

; Function Attrs: mustprogress nounwind uwtable
define linkonce_odr hidden noundef ptr @_ZN14CompressedOops4baseEv() #1 comdat align 2 {
  %1 = load ptr, ptr @_ZN14CompressedOops11_narrow_oopE, align 8
  ret ptr %1
}

; Function Attrs: mustprogress nounwind uwtable
define linkonce_odr hidden noundef i32 @_ZN14CompressedOops5shiftEv() #1 comdat align 2 {
  %1 = load i32, ptr getelementptr inbounds (%struct.NarrowPtrStruct, ptr @_ZN14CompressedOops11_narrow_oopE, i32 0, i32 1), align 8
  ret i32 %1
}

; Function Attrs: mustprogress nounwind uwtable
define hidden void @_ZN14MacroAssembler24decode_heap_oop_not_nullE8Register(ptr noundef nonnull align 8 dereferenceable(40) %0, i32 %1) #1 align 2 {
  %3 = alloca %class.Register, align 4
  %4 = alloca ptr, align 8
  %5 = alloca %class.Register, align 4
  %6 = alloca %class.Register, align 4
  %7 = alloca %class.Register, align 4
  %8 = getelementptr inbounds %class.Register, ptr %3, i32 0, i32 0
  store i32 %1, ptr %8, align 4
  store ptr %0, ptr %4, align 8
  %9 = load ptr, ptr %4, align 8
  %10 = call noundef i32 @_ZN14CompressedOops5shiftEv()
  %11 = icmp ne i32 %10, 0
  br i1 %11, label %12, label %24

12:                                               ; preds = %2
  call void @llvm.memcpy.p0.p0.i64(ptr align 4 %5, ptr align 4 %3, i64 4, i1 false)
  %13 = load i32, ptr @LogMinObjAlignmentInBytes, align 4
  %14 = getelementptr inbounds %class.Register, ptr %5, i32 0, i32 0
  %15 = load i32, ptr %14, align 4
  call void @_ZN9Assembler4shlqE8Registeri(ptr noundef nonnull align 8 dereferenceable(40) %9, i32 %15, i32 noundef %13)
  %16 = call noundef ptr @_ZN14CompressedOops4baseEv()
  %17 = icmp ne ptr %16, null
  br i1 %17, label %18, label %23

18:                                               ; preds = %12
  call void @llvm.memcpy.p0.p0.i64(ptr align 4 %6, ptr align 4 %3, i64 4, i1 false)
  call void @llvm.memcpy.p0.p0.i64(ptr align 4 %7, ptr align 4 @_ZL12r12_heapbase, i64 4, i1 false)
  %19 = getelementptr inbounds %class.Register, ptr %6, i32 0, i32 0
  %20 = load i32, ptr %19, align 4
  %21 = getelementptr inbounds %class.Register, ptr %7, i32 0, i32 0
  %22 = load i32, ptr %21, align 4
  call void @_ZN9Assembler4addqE8RegisterS0_(ptr noundef nonnull align 8 dereferenceable(40) %9, i32 %20, i32 %22)
  br label %23

23:                                               ; preds = %18, %12
  br label %25

24:                                               ; preds = %2
  br label %25

25:                                               ; preds = %24, %23
  ret void
}