; Function Attrs: mustprogress nounwind uwtable
define hidden void @_ZN14MacroAssembler24decode_heap_oop_not_nullE8Register(ptr noundef nonnull align 8 dereferenceable(40) %0, i32 %1) local_unnamed_addr #0 align 2 {
  %3 = load i32, ptr getelementptr inbounds (i8, ptr @_ZN14CompressedOops11_narrow_oopE, i64 8), align 8
  %.not = icmp eq i32 %3, 0
  br i1 %.not, label %8, label %4

4:                                                ; preds = %2
  %5 = load i32, ptr @LogMinObjAlignmentInBytes, align 4
  tail call void @_ZN9Assembler4shlqE8Registeri(ptr noundef nonnull align 8 dereferenceable(40) %0, i32 %1, i32 noundef %5) #18
  %6 = load ptr, ptr @_ZN14CompressedOops11_narrow_oopE, align 8
  %.not5 = icmp eq ptr %6, null
  br i1 %.not5, label %8, label %7

7:                                                ; preds = %4
  tail call void @_ZN9Assembler4addqE8RegisterS0_(ptr noundef nonnull align 8 dereferenceable(40) %0, i32 %1, i32 12) #18
  br label %8

8:                                                ; preds = %2, %4, %7
  ret void
}